target datalayout = "e-m:e-p270:32:32-p271:32:32-p272:64:64-i64:64-i128:128-f80:128-n8:16:32:64-S128"
target triple = "x86_64-pc-linux-gnu"

%struct.APEContext = type { ptr, ptr, %struct.BswapDSPContext, %struct.LLAudDSPContext, i32, i32, i32, i32, i32, i32, i32, i32, i32, i32, %struct.APEPredictor, %struct.APEPredictor64, ptr, i32, [2 x ptr], ptr, i32, [2 x ptr], i32, [3 x ptr], %struct.APERangecoder, %struct.APERice, %struct.APERice, [3 x [2 x %struct.APEFilter]], %struct.GetBitContext, ptr, ptr, i32, ptr, i32, i32, ptr, ptr, ptr, ptr }
%struct.BswapDSPContext = type { ptr, ptr }
%struct.LLAudDSPContext = type { ptr, ptr }
%struct.APEPredictor = type { ptr, [2 x i32], [2 x i32], [2 x i32], [2 x [4 x i32]], [2 x [5 x i32]], [562 x i32], i32 }
%struct.APEPredictor64 = type { ptr, [2 x i64], [2 x i64], [2 x i64], [2 x [4 x i64]], [2 x [5 x i64]], [562 x i64] }
%struct.APERangecoder = type { i32, i32, i32, i32 }
%struct.APERice = type { i32, i32 }
%struct.APEFilter = type { ptr, ptr, ptr, ptr, i32 }
%struct.GetBitContext = type { ptr, ptr, i32, i32, i32 }

; Function Attrs: nounwind uwtable
define internal void @entropy_decode_stereo_3860(ptr noundef %0, i32 noundef %1) #1 {
  %3 = alloca ptr, align 8
  %4 = alloca i32, align 4
  %5 = alloca ptr, align 8
  %6 = alloca ptr, align 8
  %7 = alloca i32, align 4
  store ptr %0, ptr %3, align 8, !tbaa !29
  store i32 %1, ptr %4, align 4, !tbaa !32
  call void @llvm.lifetime.start.p0(i64 8, ptr %5) #11
  %8 = load ptr, ptr %3, align 8, !tbaa !29
  %9 = getelementptr inbounds nuw %struct.APEContext, ptr %8, i32 0, i32 18
  %10 = getelementptr inbounds [2 x ptr], ptr %9, i64 0, i64 0
  %11 = load ptr, ptr %10, align 8, !tbaa !72
  store ptr %11, ptr %5, align 8, !tbaa !72
  call void @llvm.lifetime.start.p0(i64 8, ptr %6) #11
  %12 = load ptr, ptr %3, align 8, !tbaa !29
  %13 = getelementptr inbounds nuw %struct.APEContext, ptr %12, i32 0, i32 18
  %14 = getelementptr inbounds [2 x ptr], ptr %13, i64 0, i64 1
  %15 = load ptr, ptr %14, align 8, !tbaa !72
  store ptr %15, ptr %6, align 8, !tbaa !72
  call void @llvm.lifetime.start.p0(i64 4, ptr %7) #11
  %16 = load i32, ptr %4, align 4, !tbaa !32
  store i32 %16, ptr %7, align 4, !tbaa !32
  br label %17

17:                                               ; preds = %21, %2
  %18 = load i32, ptr %4, align 4, !tbaa !32
  %19 = add nsw i32 %18, -1
  store i32 %19, ptr %4, align 4, !tbaa !32
  %20 = icmp ne i32 %18, 0
  br i1 %20, label %21, label %30

21:                                               ; preds = %17
  %22 = load ptr, ptr %3, align 8, !tbaa !29
  %23 = load ptr, ptr %3, align 8, !tbaa !29
  %24 = getelementptr inbounds nuw %struct.APEContext, ptr %23, i32 0, i32 28
  %25 = load ptr, ptr %3, align 8, !tbaa !29
  %26 = getelementptr inbounds nuw %struct.APEContext, ptr %25, i32 0, i32 26
  %27 = call i32 @ape_decode_value_3860(ptr noundef %22, ptr noundef %24, ptr noundef %26)
  %28 = load ptr, ptr %5, align 8, !tbaa !72
  %29 = getelementptr inbounds nuw i32, ptr %28, i32 1
  store ptr %29, ptr %5, align 8, !tbaa !72
  store i32 %27, ptr %28, align 4, !tbaa !32
  br label %17, !llvm.loop !111

30:                                               ; preds = %17
  br label %31

31:                                               ; preds = %35, %30
  %32 = load i32, ptr %7, align 4, !tbaa !32
  %33 = add nsw i32 %32, -1
  store i32 %33, ptr %7, align 4, !tbaa !32
  %34 = icmp ne i32 %32, 0
  br i1 %34, label %35, label %44

35:                                               ; preds = %31
  %36 = load ptr, ptr %3, align 8, !tbaa !29
  %37 = load ptr, ptr %3, align 8, !tbaa !29
  %38 = getelementptr inbounds nuw %struct.APEContext, ptr %37, i32 0, i32 28
  %39 = load ptr, ptr %3, align 8, !tbaa !29
  %40 = getelementptr inbounds nuw %struct.APEContext, ptr %39, i32 0, i32 25
  %41 = call i32 @ape_decode_value_3860(ptr noundef %36, ptr noundef %38, ptr noundef %40)
  %42 = load ptr, ptr %6, align 8, !tbaa !72
  %43 = getelementptr inbounds nuw i32, ptr %42, i32 1
  store ptr %43, ptr %6, align 8, !tbaa !72
  store i32 %41, ptr %42, align 4, !tbaa !32
  br label %31, !llvm.loop !112

44:                                               ; preds = %31
  call void @llvm.lifetime.end.p0(i64 4, ptr %7) #11
  call void @llvm.lifetime.end.p0(i64 8, ptr %6) #11
  call void @llvm.lifetime.end.p0(i64 8, ptr %5) #11
  ret void
}