; Function Attrs: nounwind uwtable
define internal void @entropy_decode_stereo_3860(ptr noundef captures(none) %0, i32 noundef %1) #1 {
  %3 = getelementptr inbounds nuw i8, ptr %0, i64 7168
  %4 = load ptr, ptr %3, align 8, !tbaa !85
  %cond = icmp eq i32 %1, 0
  br i1 %cond, label %._crit_edge, label %.lr.ph

.lr.ph:                                           ; preds = %2
  %5 = getelementptr inbounds nuw i8, ptr %0, i64 7160
  %6 = load ptr, ptr %5, align 8, !tbaa !85
  %7 = getelementptr inbounds nuw i8, ptr %0, i64 7512
  %8 = getelementptr inbounds nuw i8, ptr %0, i64 7264
  br label %10

.lr.ph22:                                         ; preds = %10
  %9 = getelementptr inbounds nuw i8, ptr %0, i64 7256
  br label %14

10:                                               ; preds = %.lr.ph, %10
  %.01318 = phi ptr [ %6, %.lr.ph ], [ %13, %10 ]
  %.01417 = phi i32 [ %1, %.lr.ph ], [ %11, %10 ]
  %11 = add nsw i32 %.01417, -1
  %12 = tail call fastcc i32 @ape_decode_value_3860(ptr noundef nonnull %0, ptr noundef nonnull %7, ptr noundef nonnull %8)
  %13 = getelementptr inbounds nuw i8, ptr %.01318, i64 4
  store i32 %12, ptr %.01318, align 4, !tbaa !61
  %.not = icmp eq i32 %11, 0
  br i1 %.not, label %.lr.ph22, label %10, !llvm.loop !105

14:                                               ; preds = %.lr.ph22, %14
  %.021 = phi i32 [ %1, %.lr.ph22 ], [ %15, %14 ]
  %.01220 = phi ptr [ %4, %.lr.ph22 ], [ %17, %14 ]
  %15 = add nsw i32 %.021, -1
  %16 = tail call fastcc i32 @ape_decode_value_3860(ptr noundef nonnull %0, ptr noundef nonnull %7, ptr noundef nonnull %9)
  %17 = getelementptr inbounds nuw i8, ptr %.01220, i64 4
  store i32 %16, ptr %.01220, align 4, !tbaa !61
  %.not15 = icmp eq i32 %15, 0
  br i1 %.not15, label %._crit_edge, label %14, !llvm.loop !106

._crit_edge:                                      ; preds = %14, %2
  ret void
}